; Function Attrs: mustprogress nofree norecurse nosync nounwind willreturn memory(read, inaccessiblemem: none) uwtable
define dso_local range(i64 0, 8589934592) i64 @_ZN5clang13DiagnosticIDs15getGroupForDiagEj(i32 noundef %0) local_unnamed_addr #0 align 2 {
  %2 = tail call fastcc noundef ptr @_ZL11GetDiagInfoj(i32 noundef %0)
  %.not = icmp eq ptr %2, null
  br i1 %.not, label %7, label %3

3:                                                ; preds = %1
  %4 = getelementptr i8, ptr %2, i64 2
  %.val = load i32, ptr %4, align 2
  %5 = lshr i32 %.val, 17
  %6 = zext nneg i32 %5 to i64
  br label %7

7:                                                ; preds = %1, %3
  %.sroa.0.0 = phi i64 [ %6, %3 ], [ 0, %1 ]
  %.sroa.2.0 = phi i64 [ 4294967296, %3 ], [ 0, %1 ]
  %.sroa.0.0.insert.insert = or disjoint i64 %.sroa.2.0, %.sroa.0.0
  ret i64 %.sroa.0.0.insert.insert
}